target datalayout = "e-m:e-p270:32:32-p271:32:32-p272:64:64-i64:64-i128:128-f80:128-n8:16:32:64-S128"
target triple = "x86_64-pc-linux-gnu"

; Function Attrs: nounwind uwtable
define internal i32 @ecc_test_allocator(ptr noundef %0) #0 {
  %2 = alloca ptr, align 8
  %3 = alloca i32, align 4
  %4 = alloca ptr, align 8
  store ptr %0, ptr %2, align 8, !tbaa !123
  call void @llvm.lifetime.start.p0(i64 4, ptr %3) #10
  store i32 0, ptr %3, align 4, !tbaa !14
  call void @llvm.lifetime.start.p0(i64 8, ptr %4) #10
  %5 = call ptr @wc_ecc_key_new(ptr noundef null)
  store ptr %5, ptr %4, align 8, !tbaa !175
  %6 = load ptr, ptr %4, align 8, !tbaa !175
  %7 = icmp eq ptr %6, null
  br i1 %7, label %8, label %23

8:                                                ; preds = %1
  br label %9

9:                                                ; preds = %8
  %10 = call ptr @__errno_location() #12
  %11 = load i32, ptr %10, align 4, !tbaa !14
  %12 = zext i32 %11 to i64
  %13 = and i64 %12, 2047
  %14 = trunc i64 %13 to i32
  %15 = sext i32 %14 to i64
  %16 = mul nsw i64 %15, 100000
  %17 = add nsw i64 33206, %16
  %18 = add nsw i64 %17, 1073741824
  %19 = sub nsw i64 0, %18
  %20 = trunc i64 %19 to i32
  store i32 %20, ptr %3, align 4, !tbaa !14
  br label %45

21:                                               ; No predecessors!
  br label %22

22:                                               ; preds = %21
  br label %23

23:                                               ; preds = %22, %1
  %24 = load ptr, ptr %2, align 8, !tbaa !123
  %25 = load ptr, ptr %4, align 8, !tbaa !175
  %26 = call i32 @wc_ecc_make_key(ptr noundef %24, i32 noundef 32, ptr noundef %25)
  store i32 %26, ptr %3, align 4, !tbaa !14
  %27 = load i32, ptr %3, align 4, !tbaa !14
  %28 = icmp ne i32 %27, 0
  br i1 %28, label %29, label %44

29:                                               ; preds = %23
  br label %30

30:                                               ; preds = %29
  %31 = load i32, ptr %3, align 4, !tbaa !14
  %32 = sub nsw i32 0, %31
  %33 = zext i32 %32 to i64
  %34 = and i64 %33, 2047
  %35 = trunc i64 %34 to i32
  %36 = sext i32 %35 to i64
  %37 = mul nsw i64 %36, 100000
  %38 = add nsw i64 33215, %37
  %39 = add nsw i64 %38, 536870912
  %40 = sub nsw i64 0, %39
  %41 = trunc i64 %40 to i32
  store i32 %41, ptr %3, align 4, !tbaa !14
  br label %45

42:                                               ; No predecessors!
  br label %43

43:                                               ; preds = %42
  br label %44

44:                                               ; preds = %43, %23
  br label %45

45:                                               ; preds = %44, %30, %9
  %46 = load ptr, ptr %4, align 8, !tbaa !175
  call void @wc_ecc_key_free(ptr noundef %46)
  %47 = load i32, ptr %3, align 4, !tbaa !14
  call void @llvm.lifetime.end.p0(i64 8, ptr %4) #10
  call void @llvm.lifetime.end.p0(i64 4, ptr %3) #10
  ret i32 %47
}