; Function Attrs: nounwind uwtable
define internal fastcc range(i32 -1278475030, 1) i32 @ecc_test_allocator(ptr noundef nonnull %0) unnamed_addr #0 {
  %2 = tail call ptr @wc_ecc_key_new(ptr noundef null) #19
  %3 = icmp eq ptr %2, null
  br i1 %3, label %4, label %9

4:                                                ; preds = %1
  %5 = tail call ptr @__errno_location() #21
  %6 = load i32, ptr %5, align 4, !tbaa !22
  %7 = and i32 %6, 2047
  %narrow.neg12 = mul nsw i32 %7, -100000
  %8 = add nsw i32 %narrow.neg12, -1073775030
  br label %15

9:                                                ; preds = %1
  %10 = tail call i32 @wc_ecc_make_key(ptr noundef nonnull %0, i32 noundef 32, ptr noundef nonnull %2) #19
  %.not = icmp eq i32 %10, 0
  br i1 %.not, label %15, label %11

11:                                               ; preds = %9
  %12 = sub nsw i32 0, %10
  %13 = and i32 %12, 2047
  %narrow.neg = mul nsw i32 %13, -100000
  %14 = add nsw i32 %narrow.neg, -536904127
  br label %15

15:                                               ; preds = %9, %11, %4
  %.0 = phi i32 [ %8, %4 ], [ %14, %11 ], [ 0, %9 ]
  tail call void @wc_ecc_key_free(ptr noundef %2) #19
  ret i32 %.0
}